target datalayout = "e-m:e-p270:32:32-p271:32:32-p272:64:64-i64:64-i128:128-f80:128-n8:16:32:64-S128"
target triple = "x86_64-pc-linux-gnu"

%struct.nghttp2_hd_entry = type { %struct.nghttp2_hd_nv, %struct.nghttp2_nv, ptr, i32, i32 }
%struct.nghttp2_hd_nv = type { ptr, ptr, i32, i8 }
%struct.nghttp2_nv = type { ptr, ptr, i64, i64, i8 }
%struct.nghttp2_rcbuf = type { ptr, ptr, ptr, i64, i32 }
%struct.nghttp2_hd_context = type { %struct.nghttp2_hd_ringbuf, ptr, i64, i64, i32, i8 }
%struct.nghttp2_hd_ringbuf = type { ptr, i64, i64, i64 }
%struct.nghttp2_hd_map = type { [128 x ptr] }

; Function Attrs: nounwind uwtable
define dso_local void @nghttp2_hd_entry_free(ptr noundef %0) #0 {
  %2 = alloca ptr, align 8
  store ptr %0, ptr %2, align 8, !tbaa !4
  %3 = load ptr, ptr %2, align 8, !tbaa !4
  %4 = getelementptr inbounds nuw %struct.nghttp2_hd_entry, ptr %3, i32 0, i32 0
  %5 = getelementptr inbounds nuw %struct.nghttp2_hd_nv, ptr %4, i32 0, i32 1
  %6 = load ptr, ptr %5, align 8, !tbaa !35
  call void @nghttp2_rcbuf_decref(ptr noundef %6)
  %7 = load ptr, ptr %2, align 8, !tbaa !4
  %8 = getelementptr inbounds nuw %struct.nghttp2_hd_entry, ptr %7, i32 0, i32 0
  %9 = getelementptr inbounds nuw %struct.nghttp2_hd_nv, ptr %8, i32 0, i32 0
  %10 = load ptr, ptr %9, align 8, !tbaa !34
  call void @nghttp2_rcbuf_decref(ptr noundef %10)
  ret void
}

; Function Attrs: nounwind uwtable
define internal void @hd_map_remove(ptr noundef %0, ptr noundef %1) #0 {
  %3 = alloca ptr, align 8
  %4 = alloca ptr, align 8
  %5 = alloca ptr, align 8
  %6 = alloca i32, align 4
  store ptr %0, ptr %3, align 8, !tbaa !9
  store ptr %1, ptr %4, align 8, !tbaa !4
  call void @llvm.lifetime.start.p0(i64 8, ptr %5) #6
  %7 = load ptr, ptr %3, align 8, !tbaa !9
  %8 = getelementptr inbounds nuw %struct.nghttp2_hd_map, ptr %7, i32 0, i32 0
  %9 = load ptr, ptr %4, align 8, !tbaa !4
  %10 = getelementptr inbounds nuw %struct.nghttp2_hd_entry, ptr %9, i32 0, i32 4
  %11 = load i32, ptr %10, align 4, !tbaa !33
  %12 = and i32 %11, 127
  %13 = zext i32 %12 to i64
  %14 = getelementptr inbounds nuw [128 x ptr], ptr %8, i64 0, i64 %13
  store ptr %14, ptr %5, align 8, !tbaa !120
  br label %15

15:                                               ; preds = %32, %2
  %16 = load ptr, ptr %5, align 8, !tbaa !120
  %17 = load ptr, ptr %16, align 8, !tbaa !4
  %18 = icmp ne ptr %17, null
  br i1 %18, label %19, label %36

19:                                               ; preds = %15
  %20 = load ptr, ptr %5, align 8, !tbaa !120
  %21 = load ptr, ptr %20, align 8, !tbaa !4
  %22 = load ptr, ptr %4, align 8, !tbaa !4
  %23 = icmp ne ptr %21, %22
  br i1 %23, label %24, label %25

24:                                               ; preds = %19
  br label %32

25:                                               ; preds = %19
  %26 = load ptr, ptr %4, align 8, !tbaa !4
  %27 = getelementptr inbounds nuw %struct.nghttp2_hd_entry, ptr %26, i32 0, i32 2
  %28 = load ptr, ptr %27, align 8, !tbaa !32
  %29 = load ptr, ptr %5, align 8, !tbaa !120
  store ptr %28, ptr %29, align 8, !tbaa !4
  %30 = load ptr, ptr %4, align 8, !tbaa !4
  %31 = getelementptr inbounds nuw %struct.nghttp2_hd_entry, ptr %30, i32 0, i32 2
  store ptr null, ptr %31, align 8, !tbaa !32
  store i32 1, ptr %6, align 4
  br label %37

32:                                               ; preds = %24
  %33 = load ptr, ptr %5, align 8, !tbaa !120
  %34 = load ptr, ptr %33, align 8, !tbaa !4
  %35 = getelementptr inbounds nuw %struct.nghttp2_hd_entry, ptr %34, i32 0, i32 2
  store ptr %35, ptr %5, align 8, !tbaa !120
  br label %15, !llvm.loop !121

36:                                               ; preds = %15
  store i32 0, ptr %6, align 4
  br label %37

37:                                               ; preds = %36, %25
  call void @llvm.lifetime.end.p0(i64 8, ptr %5) #6
  %38 = load i32, ptr %6, align 4
  switch i32 %38, label %40 [
    i32 0, label %39
    i32 1, label %39
  ]

39:                                               ; preds = %37, %37
  ret void

40:                                               ; preds = %37
  unreachable
}

; Function Attrs: nounwind uwtable
define internal void @hd_ringbuf_pop_back(ptr noundef %0) #0 {
  %2 = alloca ptr, align 8
  store ptr %0, ptr %2, align 8, !tbaa !9
  %3 = load ptr, ptr %2, align 8, !tbaa !9
  %4 = getelementptr inbounds nuw %struct.nghttp2_hd_ringbuf, ptr %3, i32 0, i32 3
  %5 = load i64, ptr %4, align 8, !tbaa !118
  %6 = add i64 %5, -1
  store i64 %6, ptr %4, align 8, !tbaa !118
  ret void
}

; Function Attrs: nounwind uwtable
define internal i64 @entry_room(i64 noundef %0, i64 noundef %1) #0 {
  %3 = alloca i64, align 8
  %4 = alloca i64, align 8
  store i64 %0, ptr %3, align 8, !tbaa !38
  store i64 %1, ptr %4, align 8, !tbaa !38
  %5 = load i64, ptr %3, align 8, !tbaa !38
  %6 = add i64 32, %5
  %7 = load i64, ptr %4, align 8, !tbaa !38
  %8 = add i64 %6, %7
  ret i64 %8
}

; Function Attrs: nounwind uwtable
define internal ptr @hd_ringbuf_get(ptr noundef %0, i64 noundef %1) #0 {
  %3 = alloca ptr, align 8
  %4 = alloca i64, align 8
  store ptr %0, ptr %3, align 8, !tbaa !9
  store i64 %1, ptr %4, align 8, !tbaa !38
  %5 = load ptr, ptr %3, align 8, !tbaa !9
  %6 = getelementptr inbounds nuw %struct.nghttp2_hd_ringbuf, ptr %5, i32 0, i32 0
  %7 = load ptr, ptr %6, align 8, !tbaa !80
  %8 = load ptr, ptr %3, align 8, !tbaa !9
  %9 = getelementptr inbounds nuw %struct.nghttp2_hd_ringbuf, ptr %8, i32 0, i32 2
  %10 = load i64, ptr %9, align 8, !tbaa !81
  %11 = load i64, ptr %4, align 8, !tbaa !38
  %12 = add i64 %10, %11
  %13 = load ptr, ptr %3, align 8, !tbaa !9
  %14 = getelementptr inbounds nuw %struct.nghttp2_hd_ringbuf, ptr %13, i32 0, i32 1
  %15 = load i64, ptr %14, align 8, !tbaa !82
  %16 = and i64 %12, %15
  %17 = getelementptr inbounds nuw ptr, ptr %7, i64 %16
  %18 = load ptr, ptr %17, align 8, !tbaa !4
  ret ptr %18
}

; Function Attrs: nounwind uwtable
define internal void @hd_context_shrink_table_size(ptr noundef %0, ptr noundef %1) #0 {
  %3 = alloca ptr, align 8
  %4 = alloca ptr, align 8
  %5 = alloca ptr, align 8
  %6 = alloca i64, align 8
  %7 = alloca ptr, align 8
  store ptr %0, ptr %3, align 8, !tbaa !9
  store ptr %1, ptr %4, align 8, !tbaa !9
  call void @llvm.lifetime.start.p0(i64 8, ptr %5) #6
  %8 = load ptr, ptr %3, align 8, !tbaa !9
  %9 = getelementptr inbounds nuw %struct.nghttp2_hd_context, ptr %8, i32 0, i32 1
  %10 = load ptr, ptr %9, align 8, !tbaa !48
  store ptr %10, ptr %5, align 8, !tbaa !9
  br label %11

11:                                               ; preds = %61, %2
  %12 = load ptr, ptr %3, align 8, !tbaa !9
  %13 = getelementptr inbounds nuw %struct.nghttp2_hd_context, ptr %12, i32 0, i32 2
  %14 = load i64, ptr %13, align 8, !tbaa !51
  %15 = load ptr, ptr %3, align 8, !tbaa !9
  %16 = getelementptr inbounds nuw %struct.nghttp2_hd_context, ptr %15, i32 0, i32 3
  %17 = load i64, ptr %16, align 8, !tbaa !50
  %18 = icmp ugt i64 %14, %17
  br i1 %18, label %19, label %25

19:                                               ; preds = %11
  %20 = load ptr, ptr %3, align 8, !tbaa !9
  %21 = getelementptr inbounds nuw %struct.nghttp2_hd_context, ptr %20, i32 0, i32 0
  %22 = getelementptr inbounds nuw %struct.nghttp2_hd_ringbuf, ptr %21, i32 0, i32 3
  %23 = load i64, ptr %22, align 8, !tbaa !73
  %24 = icmp ugt i64 %23, 0
  br label %25

25:                                               ; preds = %19, %11
  %26 = phi i1 [ false, %11 ], [ %24, %19 ]
  br i1 %26, label %27, label %65

27:                                               ; preds = %25
  call void @llvm.lifetime.start.p0(i64 8, ptr %6) #6
  %28 = load ptr, ptr %3, align 8, !tbaa !9
  %29 = getelementptr inbounds nuw %struct.nghttp2_hd_context, ptr %28, i32 0, i32 0
  %30 = getelementptr inbounds nuw %struct.nghttp2_hd_ringbuf, ptr %29, i32 0, i32 3
  %31 = load i64, ptr %30, align 8, !tbaa !73
  %32 = sub i64 %31, 1
  store i64 %32, ptr %6, align 8, !tbaa !38
  call void @llvm.lifetime.start.p0(i64 8, ptr %7) #6
  %33 = load ptr, ptr %3, align 8, !tbaa !9
  %34 = getelementptr inbounds nuw %struct.nghttp2_hd_context, ptr %33, i32 0, i32 0
  %35 = load i64, ptr %6, align 8, !tbaa !38
  %36 = call ptr @hd_ringbuf_get(ptr noundef %34, i64 noundef %35)
  store ptr %36, ptr %7, align 8, !tbaa !4
  %37 = load ptr, ptr %7, align 8, !tbaa !4
  %38 = getelementptr inbounds nuw %struct.nghttp2_hd_entry, ptr %37, i32 0, i32 0
  %39 = getelementptr inbounds nuw %struct.nghttp2_hd_nv, ptr %38, i32 0, i32 0
  %40 = load ptr, ptr %39, align 8, !tbaa !34
  %41 = getelementptr inbounds nuw %struct.nghttp2_rcbuf, ptr %40, i32 0, i32 3
  %42 = load i64, ptr %41, align 8, !tbaa !25
  %43 = load ptr, ptr %7, align 8, !tbaa !4
  %44 = getelementptr inbounds nuw %struct.nghttp2_hd_entry, ptr %43, i32 0, i32 0
  %45 = getelementptr inbounds nuw %struct.nghttp2_hd_nv, ptr %44, i32 0, i32 1
  %46 = load ptr, ptr %45, align 8, !tbaa !35
  %47 = getelementptr inbounds nuw %struct.nghttp2_rcbuf, ptr %46, i32 0, i32 3
  %48 = load i64, ptr %47, align 8, !tbaa !25
  %49 = call i64 @entry_room(i64 noundef %42, i64 noundef %48)
  %50 = load ptr, ptr %3, align 8, !tbaa !9
  %51 = getelementptr inbounds nuw %struct.nghttp2_hd_context, ptr %50, i32 0, i32 2
  %52 = load i64, ptr %51, align 8, !tbaa !51
  %53 = sub i64 %52, %49
  store i64 %53, ptr %51, align 8, !tbaa !51
  %54 = load ptr, ptr %3, align 8, !tbaa !9
  %55 = getelementptr inbounds nuw %struct.nghttp2_hd_context, ptr %54, i32 0, i32 0
  call void @hd_ringbuf_pop_back(ptr noundef %55)
  %56 = load ptr, ptr %4, align 8, !tbaa !9
  %57 = icmp ne ptr %56, null
  br i1 %57, label %58, label %61

58:                                               ; preds = %27
  %59 = load ptr, ptr %4, align 8, !tbaa !9
  %60 = load ptr, ptr %7, align 8, !tbaa !4
  call void @hd_map_remove(ptr noundef %59, ptr noundef %60)
  br label %61

61:                                               ; preds = %58, %27
  %62 = load ptr, ptr %7, align 8, !tbaa !4
  call void @nghttp2_hd_entry_free(ptr noundef %62)
  %63 = load ptr, ptr %5, align 8, !tbaa !9
  %64 = load ptr, ptr %7, align 8, !tbaa !4
  call void @nghttp2_mem_free(ptr noundef %63, ptr noundef %64)
  call void @llvm.lifetime.end.p0(i64 8, ptr %7) #6
  call void @llvm.lifetime.end.p0(i64 8, ptr %6) #6
  br label %11, !llvm.loop !74

65:                                               ; preds = %25
  call void @llvm.lifetime.end.p0(i64 8, ptr %5) #6
  ret void
}