; Function Attrs: nounwind uwtable
define internal fastcc void @hd_context_shrink_table_size(ptr noundef captures(none) %0, ptr noundef %1) unnamed_addr #0 {
  %3 = getelementptr inbounds nuw i8, ptr %0, i64 32
  %4 = load ptr, ptr %3, align 8, !tbaa !34
  %5 = getelementptr inbounds nuw i8, ptr %0, i64 24
  %6 = getelementptr inbounds nuw i8, ptr %0, i64 40
  %7 = getelementptr inbounds nuw i8, ptr %0, i64 48
  %8 = load i64, ptr %6, align 8, !tbaa !42
  %9 = load i64, ptr %7, align 8, !tbaa !39
  %10 = icmp ugt i64 %8, %9
  br i1 %10, label %.lr.ph23, label %.critedge

.lr.ph23:                                         ; preds = %2
  %11 = getelementptr inbounds nuw i8, ptr %0, i64 16
  %12 = getelementptr inbounds nuw i8, ptr %0, i64 8
  %.not17 = icmp eq ptr %1, null
  br i1 %.not17, label %.lr.ph23.split.us, label %.lr.ph23.split

.lr.ph23.split.us:                                ; preds = %.lr.ph23, %hd_map_remove.exit.us
  %13 = phi i64 [ %33, %hd_map_remove.exit.us ], [ %8, %.lr.ph23 ]
  %14 = load i64, ptr %5, align 8, !tbaa !71
  %.not.us = icmp eq i64 %14, 0
  br i1 %.not.us, label %.critedge, label %hd_map_remove.exit.us

hd_map_remove.exit.us:                            ; preds = %.lr.ph23.split.us
  %15 = add i64 %14, -1
  %16 = load ptr, ptr %0, align 8, !tbaa !40
  %17 = load i64, ptr %11, align 8, !tbaa !63
  %18 = add i64 %17, %15
  %19 = load i64, ptr %12, align 8, !tbaa !41
  %20 = and i64 %18, %19
  %21 = getelementptr inbounds nuw ptr, ptr %16, i64 %20
  %22 = load ptr, ptr %21, align 8, !tbaa !64
  %23 = load ptr, ptr %22, align 8, !tbaa !32
  %24 = getelementptr inbounds nuw i8, ptr %23, i64 24
  %25 = load i64, ptr %24, align 8, !tbaa !23
  %26 = getelementptr inbounds nuw i8, ptr %22, i64 8
  %27 = load ptr, ptr %26, align 8, !tbaa !33
  %28 = getelementptr inbounds nuw i8, ptr %27, i64 24
  %29 = load i64, ptr %28, align 8, !tbaa !23
  %.neg18.us = add i64 %13, -32
  %30 = add i64 %25, %29
  %31 = sub i64 %.neg18.us, %30
  store i64 %31, ptr %6, align 8, !tbaa !42
  store i64 %15, ptr %5, align 8, !tbaa !62
  tail call void @nghttp2_rcbuf_decref(ptr noundef %27) #13
  %32 = load ptr, ptr %22, align 8, !tbaa !32
  tail call void @nghttp2_rcbuf_decref(ptr noundef %32) #13
  tail call void @nghttp2_mem_free(ptr noundef %4, ptr noundef nonnull %22) #13
  %33 = load i64, ptr %6, align 8, !tbaa !42
  %34 = load i64, ptr %7, align 8, !tbaa !39
  %35 = icmp ugt i64 %33, %34
  br i1 %35, label %.lr.ph23.split.us, label %.critedge, !llvm.loop !72

.lr.ph23.split:                                   ; preds = %.lr.ph23, %hd_map_remove.exit
  %36 = phi i64 [ %69, %hd_map_remove.exit ], [ %8, %.lr.ph23 ]
  %37 = load i64, ptr %5, align 8, !tbaa !71
  %.not = icmp eq i64 %37, 0
  br i1 %.not, label %.critedge, label %38

38:                                               ; preds = %.lr.ph23.split
  %39 = add i64 %37, -1
  %40 = load ptr, ptr %0, align 8, !tbaa !40
  %41 = load i64, ptr %11, align 8, !tbaa !63
  %42 = add i64 %41, %39
  %43 = load i64, ptr %12, align 8, !tbaa !41
  %44 = and i64 %42, %43
  %45 = getelementptr inbounds nuw ptr, ptr %40, i64 %44
  %46 = load ptr, ptr %45, align 8, !tbaa !64
  %47 = load ptr, ptr %46, align 8, !tbaa !32
  %48 = getelementptr inbounds nuw i8, ptr %47, i64 24
  %49 = load i64, ptr %48, align 8, !tbaa !23
  %50 = getelementptr inbounds nuw i8, ptr %46, i64 8
  %51 = load ptr, ptr %50, align 8, !tbaa !33
  %52 = getelementptr inbounds nuw i8, ptr %51, i64 24
  %53 = load i64, ptr %52, align 8, !tbaa !23
  %.neg18 = add i64 %36, -32
  %54 = add i64 %49, %53
  %55 = sub i64 %.neg18, %54
  store i64 %55, ptr %6, align 8, !tbaa !42
  store i64 %39, ptr %5, align 8, !tbaa !62
  %56 = getelementptr inbounds nuw i8, ptr %46, i64 76
  %57 = load i32, ptr %56, align 4, !tbaa !31
  %58 = and i32 %57, 127
  %59 = zext nneg i32 %58 to i64
  %60 = getelementptr inbounds nuw [128 x ptr], ptr %1, i64 0, i64 %59
  %61 = load ptr, ptr %60, align 8, !tbaa !64
  %.not13.i = icmp eq ptr %61, null
  br i1 %.not13.i, label %hd_map_remove.exit, label %.lr.ph.i.preheader

.lr.ph.i.preheader:                               ; preds = %38
  %.not11.i22 = icmp eq ptr %61, %46
  br i1 %.not11.i22, label %.lr.ph.i._crit_edge, label %.lr.ph

.lr.ph:                                           ; preds = %.lr.ph.i.preheader, %.lr.ph.i
  %62 = phi ptr [ %64, %.lr.ph.i ], [ %61, %.lr.ph.i.preheader ]
  %63 = getelementptr inbounds nuw i8, ptr %62, i64 64
  %64 = load ptr, ptr %63, align 8, !tbaa !64
  %.not.i = icmp eq ptr %64, null
  br i1 %.not.i, label %hd_map_remove.exit, label %.lr.ph.i, !llvm.loop !73

.lr.ph.i:                                         ; preds = %.lr.ph
  %.not11.i = icmp eq ptr %64, %46
  br i1 %.not11.i, label %.lr.ph.i._crit_edge.loopexit, label %.lr.ph, !llvm.loop !73

.lr.ph.i._crit_edge.loopexit:                     ; preds = %.lr.ph.i
  %65 = getelementptr inbounds nuw i8, ptr %62, i64 64
  br label %.lr.ph.i._crit_edge

.lr.ph.i._crit_edge:                              ; preds = %.lr.ph.i._crit_edge.loopexit, %.lr.ph.i.preheader
  %.014.i.lcssa = phi ptr [ %60, %.lr.ph.i.preheader ], [ %65, %.lr.ph.i._crit_edge.loopexit ]
  %66 = getelementptr inbounds nuw i8, ptr %46, i64 64
  %67 = load ptr, ptr %66, align 8, !tbaa !30
  store ptr %67, ptr %.014.i.lcssa, align 8, !tbaa !64
  store ptr null, ptr %66, align 8, !tbaa !30
  br label %hd_map_remove.exit

hd_map_remove.exit:                               ; preds = %.lr.ph, %.lr.ph.i._crit_edge, %38
  tail call void @nghttp2_rcbuf_decref(ptr noundef %51) #13
  %68 = load ptr, ptr %46, align 8, !tbaa !32
  tail call void @nghttp2_rcbuf_decref(ptr noundef %68) #13
  tail call void @nghttp2_mem_free(ptr noundef %4, ptr noundef nonnull %46) #13
  %69 = load i64, ptr %6, align 8, !tbaa !42
  %70 = load i64, ptr %7, align 8, !tbaa !39
  %71 = icmp ugt i64 %69, %70
  br i1 %71, label %.lr.ph23.split, label %.critedge, !llvm.loop !72

.critedge:                                        ; preds = %.lr.ph23.split, %hd_map_remove.exit, %.lr.ph23.split.us, %hd_map_remove.exit.us, %2
  ret void
}